target datalayout = "e-m:e-p270:32:32-p271:32:32-p272:64:64-i64:64-i128:128-f80:128-n8:16:32:64-S128"
target triple = "x86_64-pc-linux-gnu"

%struct.test_fixture = type { ptr, ptr, ptr, i32, i32, ptr }

@.str.14 = private unnamed_addr constant [34 x i8] c"../openssl/test/cmp_client_test.c\00", align 1
@.str.65 = private unnamed_addr constant [18 x i8] c"fixture->expected\00", align 1
@.str.71 = private unnamed_addr constant [18 x i8] c"1.3.6.1.5.5.7.4.2\00", align 1
@.str.72 = private unnamed_addr constant [29 x i8] c"OSSL_CMP_CTX_get_status(ctx)\00", align 1
@.str.73 = private unnamed_addr constant [6 x i8] c"itavs\00", align 1

; Function Attrs: inlinehint nounwind uwtable
define internal ptr @ossl_check_OSSL_CMP_ITAV_freefunc_type(ptr noundef %0) #3 {
  %2 = alloca ptr, align 8
  store ptr %0, ptr %2, align 8, !tbaa !39
  %3 = load ptr, ptr %2, align 8, !tbaa !39
  ret ptr %3
}

; Function Attrs: inlinehint nounwind uwtable
define internal ptr @ossl_check_OSSL_CMP_ITAV_sk_type(ptr noundef %0) #3 {
  %2 = alloca ptr, align 8
  store ptr %0, ptr %2, align 8, !tbaa !37
  %3 = load ptr, ptr %2, align 8, !tbaa !37
  ret ptr %3
}

; Function Attrs: nounwind uwtable
define internal i32 @execute_exec_GENM_ses_test_single(ptr noundef %0) #0 {
  %2 = alloca ptr, align 8
  %3 = alloca ptr, align 8
  %4 = alloca ptr, align 8
  %5 = alloca ptr, align 8
  %6 = alloca ptr, align 8
  store ptr %0, ptr %2, align 8, !tbaa !17
  call void @llvm.lifetime.start.p0(i64 8, ptr %3) #4
  %7 = load ptr, ptr %2, align 8, !tbaa !17
  %8 = getelementptr inbounds nuw %struct.test_fixture, ptr %7, i32 0, i32 1
  %9 = load ptr, ptr %8, align 8, !tbaa !29
  store ptr %9, ptr %3, align 8, !tbaa !30
  call void @llvm.lifetime.start.p0(i64 8, ptr %4) #4
  %10 = call ptr @OBJ_txt2obj(ptr noundef @.str.71, i32 noundef 1)
  store ptr %10, ptr %4, align 8, !tbaa !33
  call void @llvm.lifetime.start.p0(i64 8, ptr %5) #4
  %11 = load ptr, ptr %4, align 8, !tbaa !33
  %12 = call ptr @OSSL_CMP_ITAV_create(ptr noundef %11, ptr noundef null)
  store ptr %12, ptr %5, align 8, !tbaa !35
  call void @llvm.lifetime.start.p0(i64 8, ptr %6) #4
  %13 = load ptr, ptr %3, align 8, !tbaa !30
  %14 = load ptr, ptr %5, align 8, !tbaa !35
  %15 = call i32 @OSSL_CMP_CTX_push0_genm_ITAV(ptr noundef %13, ptr noundef %14)
  %16 = load ptr, ptr %3, align 8, !tbaa !30
  %17 = call ptr @OSSL_CMP_exec_GENM_ses(ptr noundef %16)
  store ptr %17, ptr %6, align 8, !tbaa !37
  %18 = load ptr, ptr %6, align 8, !tbaa !37
  %19 = call ptr @ossl_check_OSSL_CMP_ITAV_sk_type(ptr noundef %18)
  %20 = call ptr @ossl_check_OSSL_CMP_ITAV_freefunc_type(ptr noundef @OSSL_CMP_ITAV_free)
  call void @OPENSSL_sk_pop_free(ptr noundef %19, ptr noundef %20)
  %21 = load ptr, ptr %3, align 8, !tbaa !30
  %22 = call i32 @OSSL_CMP_CTX_get_status(ptr noundef %21)
  %23 = load ptr, ptr %2, align 8, !tbaa !17
  %24 = getelementptr inbounds nuw %struct.test_fixture, ptr %23, i32 0, i32 4
  %25 = load i32, ptr %24, align 4, !tbaa !26
  %26 = call i32 @test_int_eq(ptr noundef @.str.14, i32 noundef 112, ptr noundef @.str.72, ptr noundef @.str.65, i32 noundef %22, i32 noundef %25)
  %27 = icmp ne i32 %26, 0
  br i1 %27, label %28, label %36

28:                                               ; preds = %1
  %29 = load ptr, ptr %2, align 8, !tbaa !17
  %30 = getelementptr inbounds nuw %struct.test_fixture, ptr %29, i32 0, i32 4
  %31 = load i32, ptr %30, align 4, !tbaa !26
  %32 = icmp eq i32 %31, 0
  br i1 %32, label %33, label %36

33:                                               ; preds = %28
  %34 = load ptr, ptr %6, align 8, !tbaa !37
  %35 = call i32 @test_ptr(ptr noundef @.str.14, i32 noundef 114, ptr noundef @.str.73, ptr noundef %34)
  br label %39

36:                                               ; preds = %28, %1
  %37 = load ptr, ptr %6, align 8, !tbaa !37
  %38 = call i32 @test_ptr_null(ptr noundef @.str.14, i32 noundef 114, ptr noundef @.str.73, ptr noundef %37)
  br label %39

39:                                               ; preds = %36, %33
  %40 = phi i32 [ %35, %33 ], [ %38, %36 ]
  call void @llvm.lifetime.end.p0(i64 8, ptr %6) #4
  call void @llvm.lifetime.end.p0(i64 8, ptr %5) #4
  call void @llvm.lifetime.end.p0(i64 8, ptr %4) #4
  call void @llvm.lifetime.end.p0(i64 8, ptr %3) #4
  ret i32 %40
}