; Function Attrs: nounwind uwtable
define internal fastcc i32 @execute_exec_GENM_ses_test_single(ptr noundef nonnull readonly captures(none) %0) unnamed_addr #0 {
  %2 = getelementptr inbounds nuw i8, ptr %0, i64 8
  %3 = load ptr, ptr %2, align 8, !tbaa !23
  %4 = tail call ptr @OBJ_txt2obj(ptr noundef nonnull @.str.71, i32 noundef 1) #4
  %5 = tail call ptr @OSSL_CMP_ITAV_create(ptr noundef %4, ptr noundef null) #4
  %6 = tail call i32 @OSSL_CMP_CTX_push0_genm_ITAV(ptr noundef %3, ptr noundef %5) #4
  %7 = tail call ptr @OSSL_CMP_exec_GENM_ses(ptr noundef %3) #4
  tail call void @OPENSSL_sk_pop_free(ptr noundef %7, ptr noundef nonnull @OSSL_CMP_ITAV_free) #4
  %8 = tail call i32 @OSSL_CMP_CTX_get_status(ptr noundef %3) #4
  %9 = getelementptr inbounds nuw i8, ptr %0, i64 28
  %10 = load i32, ptr %9, align 4, !tbaa !17
  %11 = tail call i32 @test_int_eq(ptr noundef nonnull @.str.14, i32 noundef 112, ptr noundef nonnull @.str.72, ptr noundef nonnull @.str.65, i32 noundef %8, i32 noundef %10) #4
  %.not = icmp eq i32 %11, 0
  br i1 %.not, label %17, label %12

12:                                               ; preds = %1
  %13 = load i32, ptr %9, align 4, !tbaa !17
  %14 = icmp eq i32 %13, 0
  br i1 %14, label %15, label %17

15:                                               ; preds = %12
  %16 = tail call i32 @test_ptr(ptr noundef nonnull @.str.14, i32 noundef 114, ptr noundef nonnull @.str.73, ptr noundef %7) #4
  br label %19

17:                                               ; preds = %12, %1
  %18 = tail call i32 @test_ptr_null(ptr noundef nonnull @.str.14, i32 noundef 114, ptr noundef nonnull @.str.73, ptr noundef %7) #4
  br label %19

19:                                               ; preds = %17, %15
  %20 = phi i32 [ %16, %15 ], [ %18, %17 ]
  ret i32 %20
}